MPASM 5.86                          MAIN.ASM   3-3-2026  10:17:41         PAGE  1


LOC  OBJECT CODE     LINE SOURCE TEXT
  VALUE

                      00001 #include "p16f84a.inc"
                      00001         LIST
                      00002 
                      00003 ;==========================================================================
                      00004 ; Build date : Oct 24 2019
                      00005 ;  MPASM PIC16F84A processor include
                      00006 ; 
                      00007 ;  (c) Copyright 1999-2019 Microchip Technology, All rights reserved
                      00008 ;==========================================================================
                      00009 
                      00209         LIST
2007   3FFB           00002  __CONFIG _FOSC_EXTRC & _WDTE_OFF & _PWRTE_OFF & _CP_OFF
                      00003 
Warning[207]: Found label after column 1. (PHILPOT)
  00000020            00004     PHILPOT     EQU 0x20
Warning[207]: Found label after column 1. (COUNT)
  00000045            00005     COUNT       EQU 0x45
Warning[207]: Found label after column 1. (SUML)
  0000004F            00006     SUML        EQU 0x4F
Warning[207]: Found label after column 1. (SUMH)
  0000004E            00007     SUMH        EQU 0x4E
Warning[207]: Found label after column 1. (STATUS_SAVE)
  0000004D            00008     STATUS_SAVE EQU 0x4D
                      00009 
                      00010     org     0x00
0000   2???           00011     goto    SETUP
                      00012     org     0x04
0004   0009           00013     retfie
                      00014 
                      00015 ; PART 1 - Generate sequence
                      00016 ; First=0x23, Increment=0x02, Length=0x21 (33 values)
0005                  00017 SETUP
0005   01CF           00018     CLRF    SUML
0006   01CE           00019     CLRF    SUMH
0007   3021           00020     MOVLW   0x21            ; COUNT = 33
0008   00C5           00021     MOVWF   COUNT
0009   3020           00022     MOVLW   0x20            ; FSR = address 0x20
000A   0084           00023     MOVWF   FSR
000B   3023           00024     MOVLW   0x23            ; W = first value
                      00025 
000C                  00026 LOOP
000C   0080           00027     MOVWF   INDF            ; [FSR] = W
000D   0A84           00028     INCF    FSR,1           ; FSR++
000E   3E02           00029     ADDLW   0x02            ; W += 2
000F   03C5           00030     DECF    COUNT,1
0010   1D03           00031     BTFSS   STATUS,Z
0011   2???           00032     GOTO    LOOP
                      00033 
                      00034 ; PART 2 - Sum the sequence
0012   3021           00035     MOVLW   0x21            ; Reload COUNT
0013   00C5           00036     MOVWF   COUNT
0014   3020           00037     MOVLW   0x20            ; Reset FSR to 0x20
0015   0084           00038     MOVWF   FSR
MPASM 5.86                          MAIN.ASM   3-3-2026  10:17:41         PAGE  2


LOC  OBJECT CODE     LINE SOURCE TEXT
  VALUE

0016   0103           00039     CLRW                    ; W = 0
                      00040 
0017                  00041 LOOP2
0017   0700           00042     ADDWF   INDF,0          ; W = W + [FSR]
0018   1803           00043     BTFSC   STATUS,C        ; If carry, increment high byte
0019   0ACE           00044     INCF    SUMH,1
001A   0A84           00045     INCF    FSR,1
001B   03C5           00046     DECF    COUNT,1
001C   1D03           00047     BTFSS   STATUS,Z
001D   2???           00048     GOTO    LOOP2
                      00049 
001E   00CF           00050     MOVWF   SUML            ; Store low byte at 0x4F
001F   0803           00051     MOVF    STATUS,W
0020   00CD           00052     MOVWF   STATUS_SAVE     ; Save STATUS at 0x4D
                      00053 
0021   2???           00054     GOTO $                  ; Halt
3FFB                  00055     end
MPASM 5.86                          MAIN.ASM   3-3-2026  10:17:41         PAGE  3


SYMBOL TABLE
  LABEL                             VALUE 

C                                 00000000
COUNT                             00000045
DC                                00000001
EEADR                             00000009
EECON1                            00000088
EECON2                            00000089
EEDATA                            00000008
EEIE                              00000006
EEIF                              00000004
F                                 00000001
FSR                               00000004
GIE                               00000007
INDF                              00000000
INTCON                            0000000B
INTE                              00000004
INTEDG                            00000006
INTF                              00000001
IRP                               00000007
LOOP                              0000000C
LOOP2                             00000017
NOT_PD                            00000003
NOT_RBPU                          00000007
NOT_TO                            00000004
OPTION_REG                        00000081
PCL                               00000002
PCLATH                            0000000A
PHILPOT                           00000020
PORTA                             00000005
PORTB                             00000006
PS0                               00000000
PS1                               00000001
PS2                               00000002
PSA                               00000003
RA0                               00000000
RA1                               00000001
RA2                               00000002
RA3                               00000003
RA4                               00000004
RB0                               00000000
RB1                               00000001
RB2                               00000002
RB3                               00000003
RB4                               00000004
RB5                               00000005
RB6                               00000006
RB7                               00000007
RBIE                              00000003
RBIF                              00000000
RD                                00000000
RP0                               00000005
RP1                               00000006
SETUP                             00000005
STATUS                            00000003
MPASM 5.86                          MAIN.ASM   3-3-2026  10:17:41         PAGE  4


SYMBOL TABLE
  LABEL                             VALUE 

STATUS_SAVE                       0000004D
SUMH                              0000004E
SUML                              0000004F
T0CS                              00000005
T0IE                              00000005
T0IF                              00000002
T0SE                              00000004
TMR0                              00000001
TMR0IE                            00000005
TMR0IF                            00000002
TRISA                             00000085
TRISA0                            00000000
TRISA1                            00000001
TRISA2                            00000002
TRISA3                            00000003
TRISA4                            00000004
TRISB                             00000086
TRISB0                            00000000
TRISB1                            00000001
TRISB2                            00000002
TRISB3                            00000003
TRISB4                            00000004
TRISB5                            00000005
TRISB6                            00000006
TRISB7                            00000007
W                                 00000000
WR                                00000001
WREN                              00000002
WRERR                             00000003
Z                                 00000002
_.org_1_0021                      00000021
_CONFIG                           00002007
_CP_OFF                           00003FFF
_CP_ON                            0000000F
_DEVID1                           00002006
_FOSC_EXTRC                       00003FFF
_FOSC_HS                          00003FFE
_FOSC_LP                          00003FFC
_FOSC_XT                          00003FFD
_HS_OSC                           00003FFE
_IDLOC0                           00002000
_IDLOC1                           00002001
_IDLOC2                           00002002
_IDLOC3                           00002003
_LP_OSC                           00003FFC
_PWRTE_OFF                        00003FFF
_PWRTE_ON                         00003FF7
_RC_OSC                           00003FFF
_WDTE_OFF                         00003FFB
_WDTE_ON                          00003FFF
_WDT_OFF                          00003FFB
_WDT_ON                           00003FFF
_XT_OSC                           00003FFD
MPASM 5.86                          MAIN.ASM   3-3-2026  10:17:41         PAGE  5


SYMBOL TABLE
  LABEL                             VALUE 

__16F84A                          00000001
__DEBUG                           
__MPLAB_DEBUGGER_SIMULATOR        1

Errors   :     0
Warnings :     5 reported,     0 suppressed
Messages :     0 reported,     0 suppressed

